; Function Attrs: mustprogress uwtable
define void @_ZNK10open_spiel14coordinated_mp12PenniesState8ToStringB5cxx11Ev(ptr dead_on_unwind noalias nonnull writable sret(%"class.std::__cxx11::basic_string") align 8 %0, ptr noundef nonnull readonly align 8 captures(none) dereferenceable(72) %1) unnamed_addr #3 align 2 personality ptr @__gxx_personality_v0 {
  %3 = alloca %"class.absl::debian2::AlphaNum", align 8
  %4 = alloca %"class.absl::debian2::AlphaNum", align 8
  %5 = alloca %"class.absl::debian2::AlphaNum", align 8
  %6 = alloca %"class.absl::debian2::AlphaNum", align 8
  %7 = alloca %"class.absl::debian2::AlphaNum", align 8
  %8 = alloca %"class.absl::debian2::AlphaNum", align 8
  tail call void @_ZNSt7__cxx1112basic_stringIcSt11char_traitsIcESaIcEEC1Ev(ptr noundef nonnull align 8 dereferenceable(32) %0) #24
  %9 = getelementptr inbounds nuw i8, ptr %1, i64 60
  %10 = load i32, ptr %9, align 4
  %11 = icmp eq i32 %10, 0
  br i1 %11, label %12, label %16

12:                                               ; preds = %2
  store ptr @.str.23, ptr %3, align 8
  %13 = getelementptr inbounds nuw i8, ptr %3, i64 8
  store i64 1, ptr %13, align 8
  invoke void @_ZN4absl7debian29StrAppendEPNSt7__cxx1112basic_stringIcSt11char_traitsIcESaIcEEERKNS0_8AlphaNumE(ptr noundef nonnull %0, ptr noundef nonnull align 8 dereferenceable(48) %3)
          to label %thread-pre-split unwind label %14

14:                                               ; preds = %41, %36, %30, %25, %19, %12
  %15 = landingpad { ptr, i32 }
          cleanup
  call void @_ZNSt7__cxx1112basic_stringIcSt11char_traitsIcESaIcEED1Ev(ptr noundef nonnull align 8 dereferenceable(32) %0) #24
  resume { ptr, i32 } %15

thread-pre-split:                                 ; preds = %12
  %.pr = load i32, ptr %9, align 4
  br label %16

16:                                               ; preds = %thread-pre-split, %2
  %17 = phi i32 [ %.pr, %thread-pre-split ], [ %10, %2 ]
  %18 = icmp eq i32 %17, 1
  br i1 %18, label %19, label %21

19:                                               ; preds = %16
  store ptr @.str.24, ptr %4, align 8
  %20 = getelementptr inbounds nuw i8, ptr %4, i64 8
  store i64 1, ptr %20, align 8
  invoke void @_ZN4absl7debian29StrAppendEPNSt7__cxx1112basic_stringIcSt11char_traitsIcESaIcEEERKNS0_8AlphaNumE(ptr noundef nonnull %0, ptr noundef nonnull align 8 dereferenceable(48) %4)
          to label %21 unwind label %14

21:                                               ; preds = %19, %16
  %22 = getelementptr inbounds nuw i8, ptr %1, i64 68
  %23 = load i32, ptr %22, align 4
  %24 = icmp eq i32 %23, 0
  br i1 %24, label %25, label %27

25:                                               ; preds = %21
  store ptr @.str.24, ptr %5, align 8
  %26 = getelementptr inbounds nuw i8, ptr %5, i64 8
  store i64 1, ptr %26, align 8
  invoke void @_ZN4absl7debian29StrAppendEPNSt7__cxx1112basic_stringIcSt11char_traitsIcESaIcEEERKNS0_8AlphaNumE(ptr noundef nonnull %0, ptr noundef nonnull align 8 dereferenceable(48) %5)
          to label %thread-pre-split8 unwind label %14

thread-pre-split8:                                ; preds = %25
  %.pr9 = load i32, ptr %22, align 4
  br label %27

27:                                               ; preds = %thread-pre-split8, %21
  %28 = phi i32 [ %.pr9, %thread-pre-split8 ], [ %23, %21 ]
  %29 = icmp eq i32 %28, 1
  br i1 %29, label %30, label %32

30:                                               ; preds = %27
  store ptr @.str.25, ptr %6, align 8
  %31 = getelementptr inbounds nuw i8, ptr %6, i64 8
  store i64 1, ptr %31, align 8
  invoke void @_ZN4absl7debian29StrAppendEPNSt7__cxx1112basic_stringIcSt11char_traitsIcESaIcEEERKNS0_8AlphaNumE(ptr noundef nonnull %0, ptr noundef nonnull align 8 dereferenceable(48) %6)
          to label %32 unwind label %14

32:                                               ; preds = %30, %27
  %33 = getelementptr inbounds nuw i8, ptr %1, i64 64
  %34 = load i32, ptr %33, align 8
  %35 = icmp eq i32 %34, 0
  br i1 %35, label %36, label %38

36:                                               ; preds = %32
  store ptr @.str.23, ptr %7, align 8
  %37 = getelementptr inbounds nuw i8, ptr %7, i64 8
  store i64 1, ptr %37, align 8
  invoke void @_ZN4absl7debian29StrAppendEPNSt7__cxx1112basic_stringIcSt11char_traitsIcESaIcEEERKNS0_8AlphaNumE(ptr noundef nonnull %0, ptr noundef nonnull align 8 dereferenceable(48) %7)
          to label %thread-pre-split10 unwind label %14

thread-pre-split10:                               ; preds = %36
  %.pr11 = load i32, ptr %33, align 8
  br label %38

38:                                               ; preds = %thread-pre-split10, %32
  %39 = phi i32 [ %.pr11, %thread-pre-split10 ], [ %34, %32 ]
  %40 = icmp eq i32 %39, 1
  br i1 %40, label %41, label %43

41:                                               ; preds = %38
  store ptr @.str.24, ptr %8, align 8
  %42 = getelementptr inbounds nuw i8, ptr %8, i64 8
  store i64 1, ptr %42, align 8
  invoke void @_ZN4absl7debian29StrAppendEPNSt7__cxx1112basic_stringIcSt11char_traitsIcESaIcEEERKNS0_8AlphaNumE(ptr noundef nonnull %0, ptr noundef nonnull align 8 dereferenceable(48) %8)
          to label %43 unwind label %14

43:                                               ; preds = %38, %41
  ret void
}